; Function Attrs: mustprogress uwtable
define void @_ZN5arrow4util6detail19StringStreamWrapperC2Ev(ptr noundef nonnull writeonly align 8 captures(none) dereferenceable(16) %0) unnamed_addr #0 align 2 personality ptr @__gxx_personality_v0 {
  tail call void @llvm.experimental.noalias.scope.decl(metadata !3)
  %2 = tail call noalias noundef nonnull dereferenceable(376) ptr @_Znwm(i64 noundef 376) #7, !noalias !3
  invoke void @_ZNSt7__cxx1119basic_ostringstreamIcSt11char_traitsIcESaIcEEC1Ev(ptr noundef nonnull align 8 dereferenceable(112) %2)
          to label %_ZSt11make_uniqueINSt7__cxx1119basic_ostringstreamIcSt11char_traitsIcESaIcEEEJEENSt8__detail9_MakeUniqIT_E15__single_objectEDpOT0_.exit unwind label %3, !noalias !3

3:                                                ; preds = %1
  %4 = landingpad { ptr, i32 }
          cleanup
  tail call void @_ZdlPvm(ptr noundef nonnull %2, i64 noundef 376) #8, !noalias !3
  resume { ptr, i32 } %4

_ZSt11make_uniqueINSt7__cxx1119basic_ostringstreamIcSt11char_traitsIcESaIcEEEJEENSt8__detail9_MakeUniqIT_E15__single_objectEDpOT0_.exit: ; preds = %1
  store ptr %2, ptr %0, align 8, !tbaa !6, !alias.scope !3
  %5 = getelementptr inbounds nuw i8, ptr %0, i64 8
  store ptr %2, ptr %5, align 8, !tbaa !11
  ret void
}